; Function Attrs: nounwind uwtable
define void @Bac_PtrTransformTestTest() local_unnamed_addr #0 {
  %1 = tail call i32 @Io_ReadFileType(ptr noundef nonnull @.str.39) #14
  %2 = tail call ptr @Io_ReadNetlist(ptr noundef nonnull @.str.39, i32 noundef %1, i32 noundef 0) #14
  %3 = tail call ptr @Ptr_AbcDeriveDes(ptr noundef %2) #14
  %4 = tail call ptr @Bac_PtrTransformTest(ptr noundef %3)
  %.not.i = icmp eq ptr %3, null
  br i1 %.not.i, label %Bac_PtrFree.exit, label %.preheader.i

.preheader.i:                                     ; preds = %0
  %5 = getelementptr i8, ptr %3, i64 4
  %.val89.i = load i32, ptr %5, align 4
  %6 = icmp sgt i32 %.val89.i, 1
  br i1 %6, label %.lr.ph.i, label %.critedge.i

.lr.ph.i:                                         ; preds = %.preheader.i
  %7 = getelementptr i8, ptr %3, i64 8
  br label %8

8:                                                ; preds = %8, %.lr.ph.i
  %indvars.iv.i = phi i64 [ 1, %.lr.ph.i ], [ %indvars.iv.next.i, %8 ]
  %.val.i = load ptr, ptr %7, align 8
  %9 = getelementptr inbounds nuw ptr, ptr %.val.i, i64 %indvars.iv.i
  %10 = load ptr, ptr %9, align 8
  tail call void @Bac_PtrFreeNtk(ptr noundef %10)
  %indvars.iv.next.i = add nuw nsw i64 %indvars.iv.i, 1
  %.val8.i = load i32, ptr %5, align 4
  %11 = sext i32 %.val8.i to i64
  %12 = icmp slt i64 %indvars.iv.next.i, %11
  br i1 %12, label %8, label %.critedge.i, !llvm.loop !6

.critedge.i:                                      ; preds = %8, %.preheader.i
  %13 = getelementptr inbounds nuw i8, ptr %3, i64 8
  %14 = load ptr, ptr %13, align 8
  %.not.i.i = icmp eq ptr %14, null
  br i1 %.not.i.i, label %Vec_PtrFree.exit.i, label %15

15:                                               ; preds = %.critedge.i
  tail call void @free(ptr noundef nonnull %14) #14
  br label %Vec_PtrFree.exit.i

Vec_PtrFree.exit.i:                               ; preds = %15, %.critedge.i
  tail call void @free(ptr noundef nonnull %3) #14
  br label %Bac_PtrFree.exit

Bac_PtrFree.exit:                                 ; preds = %0, %Vec_PtrFree.exit.i
  %.not.i6 = icmp eq ptr %4, null
  br i1 %.not.i6, label %Bac_PtrFree.exit17, label %.preheader.i7

.preheader.i7:                                    ; preds = %Bac_PtrFree.exit
  %16 = getelementptr i8, ptr %4, i64 4
  %.val89.i8 = load i32, ptr %16, align 4
  %17 = icmp sgt i32 %.val89.i8, 1
  %18 = getelementptr i8, ptr %4, i64 8
  %.val.i14 = load ptr, ptr %18, align 8
  br i1 %17, label %.lr.ph.i12, label %.critedge.i9

.lr.ph.i12:                                       ; preds = %.preheader.i7
  %19 = zext nneg i32 %.val89.i8 to i64
  br label %20

20:                                               ; preds = %20, %.lr.ph.i12
  %indvars.iv.i13 = phi i64 [ 1, %.lr.ph.i12 ], [ %indvars.iv.next.i15, %20 ]
  %21 = getelementptr inbounds nuw ptr, ptr %.val.i14, i64 %indvars.iv.i13
  %22 = load ptr, ptr %21, align 8
  tail call void @Bac_PtrFreeNtk(ptr noundef %22)
  %indvars.iv.next.i15 = add nuw nsw i64 %indvars.iv.i13, 1
  %exitcond.not = icmp eq i64 %indvars.iv.next.i15, %19
  br i1 %exitcond.not, label %.critedge.i9.thread, label %20, !llvm.loop !6

.critedge.i9:                                     ; preds = %.preheader.i7
  %.not.i.i10 = icmp eq ptr %.val.i14, null
  br i1 %.not.i.i10, label %Vec_PtrFree.exit.i11, label %.critedge.i9.thread

.critedge.i9.thread:                              ; preds = %20, %.critedge.i9
  tail call void @free(ptr noundef nonnull %.val.i14) #14
  br label %Vec_PtrFree.exit.i11

Vec_PtrFree.exit.i11:                             ; preds = %.critedge.i9.thread, %.critedge.i9
  tail call void @free(ptr noundef nonnull %4) #14
  br label %Bac_PtrFree.exit17

Bac_PtrFree.exit17:                               ; preds = %Bac_PtrFree.exit, %Vec_PtrFree.exit.i11
  ret void
}